ARM GAS  C:\Users\Jorge\AppData\Local\Temp\ccOLFTrb.s 			page 1


   1              		.syntax unified
   2              		.cpu cortex-m3
   3              		.fpu softvfp
   4              		.eabi_attribute 20, 1
   5              		.eabi_attribute 21, 1
   6              		.eabi_attribute 23, 3
   7              		.eabi_attribute 24, 1
   8              		.eabi_attribute 25, 1
   9              		.eabi_attribute 26, 1
  10              		.eabi_attribute 30, 1
  11              		.eabi_attribute 34, 1
  12              		.eabi_attribute 18, 4
  13              		.thumb
  14              		.syntax unified
  15              		.file	"main.c"
  16              		.text
  17              	.Ltext0:
  18              		.cfi_sections	.debug_frame
  19              		.global	__aeabi_fmul
  20              		.global	__aeabi_fadd
  21              		.global	__aeabi_f2iz
  22              		.section	.text.Theta1,"ax",%progbits
  23              		.align	2
  24              		.global	Theta1
  25              		.thumb
  26              		.thumb_func
  27              		.type	Theta1, %function
  28              	Theta1:
  29              	.LFB63:
  30              		.file 1 "main.c"
   1:main.c        **** #include "project.h"
   2:main.c        **** #include "math.h"
   3:main.c        **** 
   4:main.c        **** int Theta1(float Angle)
   5:main.c        ****     {
  31              		.loc 1 5 0
  32              		.cfi_startproc
  33              		@ args = 0, pretend = 0, frame = 0
  34              		@ frame_needed = 0, uses_anonymous_args = 0
  35              	.LVL0:
  36 0000 08B5     		push	{r3, lr}
  37              		.cfi_def_cfa_offset 8
  38              		.cfi_offset 3, -8
  39              		.cfi_offset 14, -4
  40              	.LVL1:
   6:main.c        ****         int Compare;
   7:main.c        ****         int max_comp=1400;
   8:main.c        ****         int min_comp=7250;
   9:main.c        ****         int min_angle=0;
  10:main.c        ****         int max_angle=180;
  11:main.c        ****         Compare=((max_comp-min_comp)/(max_angle-min_angle))*(Angle-min_angle)+min_comp;
  41              		.loc 1 11 0
  42 0002 4FF04241 		mov	r1, #-1040187392
  43 0006 FFF7FEFF 		bl	__aeabi_fmul
  44              	.LVL2:
  45 000a 0349     		ldr	r1, .L3
  46 000c FFF7FEFF 		bl	__aeabi_fadd
ARM GAS  C:\Users\Jorge\AppData\Local\Temp\ccOLFTrb.s 			page 2


  47              	.LVL3:
  48 0010 FFF7FEFF 		bl	__aeabi_f2iz
  49              	.LVL4:
  12:main.c        ****         return Compare;
  13:main.c        ****     }
  50              		.loc 1 13 0
  51 0014 08BD     		pop	{r3, pc}
  52              	.L4:
  53 0016 00BF     		.align	2
  54              	.L3:
  55 0018 0090E245 		.word	1172475904
  56              		.cfi_endproc
  57              	.LFE63:
  58              		.size	Theta1, .-Theta1
  59              		.section	.text.Theta2,"ax",%progbits
  60              		.align	2
  61              		.global	Theta2
  62              		.thumb
  63              		.thumb_func
  64              		.type	Theta2, %function
  65              	Theta2:
  66              	.LFB64:
  14:main.c        ****     
  15:main.c        ****     int Theta2(float Angle)
  16:main.c        ****     {
  67              		.loc 1 16 0
  68              		.cfi_startproc
  69              		@ args = 0, pretend = 0, frame = 0
  70              		@ frame_needed = 0, uses_anonymous_args = 0
  71              	.LVL5:
  72 0000 08B5     		push	{r3, lr}
  73              		.cfi_def_cfa_offset 8
  74              		.cfi_offset 3, -8
  75              		.cfi_offset 14, -4
  76              	.LVL6:
  17:main.c        ****         int Compare;
  18:main.c        ****         int max_comp=1300;
  19:main.c        ****         int min_comp=7300;
  20:main.c        ****         int min_angle=-90;
  21:main.c        ****         int max_angle=90;
  22:main.c        ****         Compare=((max_comp-min_comp)/(max_angle-min_angle))*(Angle-min_angle)+min_comp;
  77              		.loc 1 22 0
  78 0002 0649     		ldr	r1, .L7
  79 0004 FFF7FEFF 		bl	__aeabi_fadd
  80              	.LVL7:
  81 0008 0549     		ldr	r1, .L7+4
  82 000a FFF7FEFF 		bl	__aeabi_fmul
  83              	.LVL8:
  84 000e 0549     		ldr	r1, .L7+8
  85 0010 FFF7FEFF 		bl	__aeabi_fadd
  86              	.LVL9:
  87 0014 FFF7FEFF 		bl	__aeabi_f2iz
  88              	.LVL10:
  23:main.c        ****         return Compare;
  24:main.c        ****     }
  89              		.loc 1 24 0
  90 0018 08BD     		pop	{r3, pc}
ARM GAS  C:\Users\Jorge\AppData\Local\Temp\ccOLFTrb.s 			page 3


  91              	.L8:
  92 001a 00BF     		.align	2
  93              	.L7:
  94 001c 0000B442 		.word	1119092736
  95 0020 000004C2 		.word	-1039925248
  96 0024 0020E445 		.word	1172578304
  97              		.cfi_endproc
  98              	.LFE64:
  99              		.size	Theta2, .-Theta2
 100              		.section	.text.main,"ax",%progbits
 101              		.align	2
 102              		.global	main
 103              		.thumb
 104              		.thumb_func
 105              		.type	main, %function
 106              	main:
 107              	.LFB65:
  25:main.c        ****     
  26:main.c        **** int main(void)
  27:main.c        **** {
 108              		.loc 1 27 0
 109              		.cfi_startproc
 110              		@ args = 0, pretend = 0, frame = 0
 111              		@ frame_needed = 0, uses_anonymous_args = 0
 112 0000 08B5     		push	{r3, lr}
 113              		.cfi_def_cfa_offset 8
 114              		.cfi_offset 3, -8
 115              		.cfi_offset 14, -4
 116              	.LVL11:
  28:main.c        ****     float X=8.0; //Desired X postion of the end-effector in cm
  29:main.c        ****     float Y=8.0; //Desired Y postion of the end-effector in cm
  30:main.c        ****     float r1=0.0;
  31:main.c        ****     float phi1=0.0;
  32:main.c        ****     float phi2=0.0;
  33:main.c        ****     float phi3=0.0;
  34:main.c        ****     float a2=6.0;
  35:main.c        ****     float a4=5.5;
  36:main.c        ****     float T1=0.0;//T1 is theta 1 in radians
  37:main.c        ****     float T2=0.0;//T2 is theta 2 in radians
  38:main.c        ****     
  39:main.c        ****     r1=sqrt(X*X+Y*Y);
  40:main.c        ****     
  41:main.c        ****     
  42:main.c        ****     PWM_1_Start(); //Eq.1
 117              		.loc 1 42 0
 118 0002 FFF7FEFF 		bl	PWM_1_Start
 119              	.LVL12:
 120              	.L10:
  43:main.c        ****     phi1=acos(((a4*a4)-(a2*a2)-(r1*r1))/(-2.0*a2*r1));//Eq.2
  44:main.c        ****     phi2=atan(Y/X);//Eq.3
  45:main.c        ****     T1=phi2-phi1;//Eq.4
  46:main.c        ****     phi3=acos(((r1*r1)-(a2*a2)-(a4*a4))/(-2.0*a2*a4));//Eq.5
  47:main.c        ****     T2=3.14159-phi3;//Eq.6
  48:main.c        ****     
  49:main.c        ****     for(;;)
  50:main.c        ****     {   
  51:main.c        ****        PWM_1_WriteCompare1(Theta1((T1/3.14159)*180.0)); //send servo 1 to clockwise position
ARM GAS  C:\Users\Jorge\AppData\Local\Temp\ccOLFTrb.s 			page 4


 121              		.loc 1 51 0 discriminator 1
 122 0006 0A48     		ldr	r0, .L12
 123 0008 FFF7FEFF 		bl	Theta1
 124              	.LVL13:
 125 000c 80B2     		uxth	r0, r0
 126 000e FFF7FEFF 		bl	PWM_1_WriteCompare1
 127              	.LVL14:
  52:main.c        ****        CyDelay(2000);
 128              		.loc 1 52 0 discriminator 1
 129 0012 4FF4FA60 		mov	r0, #2000
 130 0016 FFF7FEFF 		bl	CyDelay
 131              	.LVL15:
  53:main.c        ****        PWM_1_WriteCompare2(Theta2((T2/3.14159)*180.0)); //Send servo 2 to counterclockwise position
 132              		.loc 1 53 0 discriminator 1
 133 001a 0648     		ldr	r0, .L12+4
 134 001c FFF7FEFF 		bl	Theta2
 135              	.LVL16:
 136 0020 80B2     		uxth	r0, r0
 137 0022 FFF7FEFF 		bl	PWM_1_WriteCompare2
 138              	.LVL17:
  54:main.c        ****        CyDelay(2000);
 139              		.loc 1 54 0 discriminator 1
 140 0026 4FF4FA60 		mov	r0, #2000
 141 002a FFF7FEFF 		bl	CyDelay
 142              	.LVL18:
 143 002e EAE7     		b	.L10
 144              	.L13:
 145              		.align	2
 146              	.L12:
 147 0030 5B780C42 		.word	1108113499
 148 0034 8863A541 		.word	1101357960
 149              		.cfi_endproc
 150              	.LFE65:
 151              		.size	main, .-main
 152              		.text
 153              	.Letext0:
 154              		.file 2 "c:\\program files (x86)\\cypress\\psoc creator\\4.3\\psoc creator\\import\\gnu\\arm\\5.4.
 155              		.file 3 "c:\\program files (x86)\\cypress\\psoc creator\\4.3\\psoc creator\\import\\gnu\\arm\\5.4.
 156              		.file 4 "Generated_Source\\PSoC5/PWM_1.h"
 157              		.file 5 "Generated_Source\\PSoC5/CyLib.h"
 158              		.file 6 "Generated_Source\\PSoC5/core_cm3.h"