ARM GAS  C:\Users\Jorge\AppData\Local\Temp\cc7CKqLp.s 			page 1


   1              		.syntax unified
   2              		.cpu cortex-m3
   3              		.fpu softvfp
   4              		.eabi_attribute 20, 1
   5              		.eabi_attribute 21, 1
   6              		.eabi_attribute 23, 3
   7              		.eabi_attribute 24, 1
   8              		.eabi_attribute 25, 1
   9              		.eabi_attribute 26, 1
  10              		.eabi_attribute 30, 1
  11              		.eabi_attribute 34, 1
  12              		.eabi_attribute 18, 4
  13              		.thumb
  14              		.syntax unified
  15              		.file	"main.c"
  16              		.text
  17              	.Ltext0:
  18              		.cfi_sections	.debug_frame
  19              		.global	__aeabi_ui2f
  20              		.global	__aeabi_f2d
  21              		.global	__aeabi_ddiv
  22              		.global	__aeabi_d2iz
  23              		.section	.text.main,"ax",%progbits
  24              		.align	2
  25              		.global	main
  26              		.thumb
  27              		.thumb_func
  28              		.type	main, %function
  29              	main:
  30              	.LFB63:
  31              		.file 1 "main.c"
   1:main.c        **** 
   2:main.c        **** #include "project.h"
   3:main.c        **** 
   4:main.c        **** int main(void)
   5:main.c        **** {   
  32              		.loc 1 5 0
  33              		.cfi_startproc
  34              		@ args = 0, pretend = 0, frame = 0
  35              		@ frame_needed = 0, uses_anonymous_args = 0
  36 0000 70B5     		push	{r4, r5, r6, lr}
  37              		.cfi_def_cfa_offset 16
  38              		.cfi_offset 4, -16
  39              		.cfi_offset 5, -12
  40              		.cfi_offset 6, -8
  41              		.cfi_offset 14, -4
  42              	.LVL0:
   6:main.c        ****     float Motor_Speed=10.0; //steps per second
   7:main.c        ****     int Period=0;
   8:main.c        ****     int Clock_Speed=10000;
   9:main.c        ****     int Direction=2; //1 means forwards, 2 means backwards
  10:main.c        ****     uint8 Receive1;
  11:main.c        ****     uint8 Receive2;
  12:main.c        ****     PWM_1_Start();
  43              		.loc 1 12 0
  44 0002 FFF7FEFF 		bl	PWM_1_Start
  45              	.LVL1:
ARM GAS  C:\Users\Jorge\AppData\Local\Temp\cc7CKqLp.s 			page 2


  13:main.c        ****     PWM_2_Start();
  46              		.loc 1 13 0
  47 0006 FFF7FEFF 		bl	PWM_2_Start
  48              	.LVL2:
  14:main.c        ****     UART_1_Start();
  49              		.loc 1 14 0
  50 000a FFF7FEFF 		bl	UART_1_Start
  51              	.LVL3:
  52              	.L9:
  15:main.c        ****      
  16:main.c        ****    
  17:main.c        ****     
  18:main.c        ****     
  19:main.c        ****     for(;;)
  20:main.c        ****     {
  21:main.c        ****         Receive1=UART_1_GetChar();
  53              		.loc 1 21 0
  54 000e FFF7FEFF 		bl	UART_1_GetChar
  55              	.LVL4:
  56 0012 0446     		mov	r4, r0
  57              	.LVL5:
  22:main.c        ****         while (Receive1==0)
  58              		.loc 1 22 0
  59 0014 02E0     		b	.L2
  60              	.L3:
  23:main.c        ****         {
  24:main.c        ****             Receive1=UART_1_GetChar();
  61              		.loc 1 24 0
  62 0016 FFF7FEFF 		bl	UART_1_GetChar
  63              	.LVL6:
  64 001a 0446     		mov	r4, r0
  65              	.LVL7:
  66              	.L2:
  22:main.c        ****         while (Receive1==0)
  67              		.loc 1 22 0
  68 001c 002C     		cmp	r4, #0
  69 001e FAD0     		beq	.L3
  25:main.c        ****         }
  26:main.c        ****          
  27:main.c        ****         Receive2=UART_1_GetChar();
  70              		.loc 1 27 0
  71 0020 FFF7FEFF 		bl	UART_1_GetChar
  72              	.LVL8:
  28:main.c        ****         while (Receive2==0)
  73              		.loc 1 28 0
  74 0024 01E0     		b	.L4
  75              	.L5:
  29:main.c        ****         {
  30:main.c        ****             Receive2=UART_1_GetChar();
  76              		.loc 1 30 0
  77 0026 FFF7FEFF 		bl	UART_1_GetChar
  78              	.LVL9:
  79              	.L4:
  28:main.c        ****         while (Receive2==0)
  80              		.loc 1 28 0
  81 002a 0028     		cmp	r0, #0
  82 002c FBD0     		beq	.L5
ARM GAS  C:\Users\Jorge\AppData\Local\Temp\cc7CKqLp.s 			page 3


  31:main.c        ****         }
  32:main.c        ****         
  33:main.c        ****         if (Receive1==1 || Receive1==2)
  83              		.loc 1 33 0
  84 002e 631E     		subs	r3, r4, #1
  85 0030 DBB2     		uxtb	r3, r3
  86 0032 012B     		cmp	r3, #1
  87 0034 03D8     		bhi	.L6
  34:main.c        ****         {
  35:main.c        ****             Direction=Receive1;
  88              		.loc 1 35 0
  89 0036 2646     		mov	r6, r4
  90              	.LVL10:
  36:main.c        ****             Motor_Speed=Receive2;
  91              		.loc 1 36 0
  92 0038 FFF7FEFF 		bl	__aeabi_ui2f
  93              	.LVL11:
  94 003c 03E0     		b	.L7
  95              	.LVL12:
  96              	.L6:
  37:main.c        ****         }
  38:main.c        ****         else
  39:main.c        ****         {
  40:main.c        ****             Direction=Receive2;
  97              		.loc 1 40 0
  98 003e 0646     		mov	r6, r0
  99              	.LVL13:
  41:main.c        ****             Motor_Speed=Receive1;
 100              		.loc 1 41 0
 101 0040 2046     		mov	r0, r4
 102              	.LVL14:
 103 0042 FFF7FEFF 		bl	__aeabi_ui2f
 104              	.LVL15:
 105              	.L7:
  42:main.c        ****         }
  43:main.c        ****         
  44:main.c        ****         Period=4.0*Clock_Speed/Motor_Speed;
 106              		.loc 1 44 0
 107 0046 FFF7FEFF 		bl	__aeabi_f2d
 108              	.LVL16:
 109 004a 0246     		mov	r2, r0
 110 004c 0B46     		mov	r3, r1
 111 004e 1CA1     		adr	r1, .L12
 112 0050 D1E90001 		ldrd	r0, [r1]
 113 0054 FFF7FEFF 		bl	__aeabi_ddiv
 114              	.LVL17:
 115 0058 FFF7FEFF 		bl	__aeabi_d2iz
 116              	.LVL18:
 117 005c 0446     		mov	r4, r0
 118              	.LVL19:
  45:main.c        ****         PWM_1_WritePeriod(Period);
 119              		.loc 1 45 0
 120 005e 85B2     		uxth	r5, r0
 121 0060 2846     		mov	r0, r5
 122              	.LVL20:
 123 0062 FFF7FEFF 		bl	PWM_1_WritePeriod
 124              	.LVL21:
ARM GAS  C:\Users\Jorge\AppData\Local\Temp\cc7CKqLp.s 			page 4


  46:main.c        ****         PWM_1_WriteCompare(Period/2);
 125              		.loc 1 46 0
 126 0066 04EBD474 		add	r4, r4, r4, lsr #31
 127              	.LVL22:
 128 006a C4F34F04 		ubfx	r4, r4, #1, #16
 129 006e 2046     		mov	r0, r4
 130 0070 FFF7FEFF 		bl	PWM_1_WriteCompare
 131              	.LVL23:
  47:main.c        ****         PWM_2_WritePeriod(Period);
 132              		.loc 1 47 0
 133 0074 2846     		mov	r0, r5
 134 0076 FFF7FEFF 		bl	PWM_2_WritePeriod
 135              	.LVL24:
  48:main.c        ****         PWM_2_WriteCompare(Period/2);
 136              		.loc 1 48 0
 137 007a 2046     		mov	r0, r4
 138 007c FFF7FEFF 		bl	PWM_2_WriteCompare
 139              	.LVL25:
  49:main.c        ****         
  50:main.c        ****         if(Direction==1)
 140              		.loc 1 50 0
 141 0080 012E     		cmp	r6, #1
 142 0082 0BD1     		bne	.L8
  51:main.c        ****         {
  52:main.c        ****             PWM_1_SetCompareMode(3);
 143              		.loc 1 52 0
 144 0084 0320     		movs	r0, #3
 145 0086 FFF7FEFF 		bl	PWM_1_SetCompareMode
 146              	.LVL26:
  53:main.c        ****             PWM_2_SetCompareMode(1);
 147              		.loc 1 53 0
 148 008a 0120     		movs	r0, #1
 149 008c FFF7FEFF 		bl	PWM_2_SetCompareMode
 150              	.LVL27:
  54:main.c        ****             PWM_1_WriteCounter(0);
 151              		.loc 1 54 0
 152 0090 0020     		movs	r0, #0
 153 0092 FFF7FEFF 		bl	PWM_1_WriteCounter
 154              	.LVL28:
  55:main.c        ****             PWM_2_WriteCounter(0);
 155              		.loc 1 55 0
 156 0096 0020     		movs	r0, #0
 157 0098 FFF7FEFF 		bl	PWM_2_WriteCounter
 158              	.LVL29:
 159              	.L8:
  56:main.c        ****         }
  57:main.c        ****         if(Direction==2)
 160              		.loc 1 57 0
 161 009c 022E     		cmp	r6, #2
 162 009e B6D1     		bne	.L9
  58:main.c        ****         {
  59:main.c        ****             PWM_1_SetCompareMode(1);
 163              		.loc 1 59 0
 164 00a0 0120     		movs	r0, #1
 165 00a2 FFF7FEFF 		bl	PWM_1_SetCompareMode
 166              	.LVL30:
  60:main.c        ****             PWM_2_SetCompareMode(3);
ARM GAS  C:\Users\Jorge\AppData\Local\Temp\cc7CKqLp.s 			page 5


 167              		.loc 1 60 0
 168 00a6 0320     		movs	r0, #3
 169 00a8 FFF7FEFF 		bl	PWM_2_SetCompareMode
 170              	.LVL31:
  61:main.c        ****             PWM_1_WriteCounter(0);
 171              		.loc 1 61 0
 172 00ac 0020     		movs	r0, #0
 173 00ae FFF7FEFF 		bl	PWM_1_WriteCounter
 174              	.LVL32:
  62:main.c        ****             PWM_2_WriteCounter(0);
 175              		.loc 1 62 0
 176 00b2 0020     		movs	r0, #0
 177 00b4 FFF7FEFF 		bl	PWM_2_WriteCounter
 178              	.LVL33:
 179 00b8 A9E7     		b	.L9
 180              	.L13:
 181 00ba 00BFAFF3 		.align	3
 181      0080
 182              	.L12:
 183 00c0 00000000 		.word	0
 184 00c4 0088E340 		.word	1088653312
 185              		.cfi_endproc
 186              	.LFE63:
 187              		.size	main, .-main
 188              		.text
 189              	.Letext0:
 190              		.file 2 "c:\\program files (x86)\\cypress\\psoc creator\\4.3\\psoc creator\\import\\gnu\\arm\\5.4.
 191              		.file 3 "c:\\program files (x86)\\cypress\\psoc creator\\4.3\\psoc creator\\import\\gnu\\arm\\5.4.
 192              		.file 4 "Generated_Source\\PSoC5/cytypes.h"
 193              		.file 5 "Generated_Source\\PSoC5/PWM_1.h"
 194              		.file 6 "Generated_Source\\PSoC5/PWM_2.h"
 195              		.file 7 "Generated_Source\\PSoC5/UART_1.h"
 196              		.file 8 "Generated_Source\\PSoC5/core_cm3.h"