ARM GAS  C:\Users\Jorge\AppData\Local\Temp\cc5gHdnk.s 			page 1


   1              		.syntax unified
   2              		.cpu cortex-m3
   3              		.fpu softvfp
   4              		.eabi_attribute 20, 1
   5              		.eabi_attribute 21, 1
   6              		.eabi_attribute 23, 3
   7              		.eabi_attribute 24, 1
   8              		.eabi_attribute 25, 1
   9              		.eabi_attribute 26, 1
  10              		.eabi_attribute 30, 1
  11              		.eabi_attribute 34, 1
  12              		.eabi_attribute 18, 4
  13              		.thumb
  14              		.syntax unified
  15              		.file	"main.c"
  16              		.text
  17              	.Ltext0:
  18              		.cfi_sections	.debug_frame
  19              		.global	__aeabi_fmul
  20              		.global	__aeabi_fadd
  21              		.global	__aeabi_f2iz
  22              		.section	.text.Theta1,"ax",%progbits
  23              		.align	2
  24              		.global	Theta1
  25              		.thumb
  26              		.thumb_func
  27              		.type	Theta1, %function
  28              	Theta1:
  29              	.LFB63:
  30              		.file 1 "main.c"
   1:main.c        **** 
   2:main.c        **** #include "project.h"
   3:main.c        **** #include "math.h"
   4:main.c        **** 
   5:main.c        **** int Theta1(float Angle)
   6:main.c        ****     {
  31              		.loc 1 6 0
  32              		.cfi_startproc
  33              		@ args = 0, pretend = 0, frame = 0
  34              		@ frame_needed = 0, uses_anonymous_args = 0
  35              	.LVL0:
  36 0000 08B5     		push	{r3, lr}
  37              		.cfi_def_cfa_offset 8
  38              		.cfi_offset 3, -8
  39              		.cfi_offset 14, -4
  40              	.LVL1:
   7:main.c        ****         int Compare;
   8:main.c        ****         int max_comp=1500;
   9:main.c        ****         int min_comp=6500;
  10:main.c        ****         int min_angle=0;
  11:main.c        ****         int max_angle=180;
  12:main.c        ****         Compare=((max_comp-min_comp)/(max_angle-min_angle))*(Angle-min_angle)+min_comp;
  41              		.loc 1 12 0
  42 0002 0449     		ldr	r1, .L3
  43 0004 FFF7FEFF 		bl	__aeabi_fmul
  44              	.LVL2:
  45 0008 0349     		ldr	r1, .L3+4
ARM GAS  C:\Users\Jorge\AppData\Local\Temp\cc5gHdnk.s 			page 2


  46 000a FFF7FEFF 		bl	__aeabi_fadd
  47              	.LVL3:
  48 000e FFF7FEFF 		bl	__aeabi_f2iz
  49              	.LVL4:
  13:main.c        ****         return Compare;
  14:main.c        ****     }
  50              		.loc 1 14 0
  51 0012 08BD     		pop	{r3, pc}
  52              	.L4:
  53              		.align	2
  54              	.L3:
  55 0014 0000D8C1 		.word	-1042808832
  56 0018 0020CB45 		.word	1170939904
  57              		.cfi_endproc
  58              	.LFE63:
  59              		.size	Theta1, .-Theta1
  60              		.section	.text.Theta2,"ax",%progbits
  61              		.align	2
  62              		.global	Theta2
  63              		.thumb
  64              		.thumb_func
  65              		.type	Theta2, %function
  66              	Theta2:
  67              	.LFB64:
  15:main.c        ****     
  16:main.c        ****     int Theta2(float Angle)
  17:main.c        ****     {
  68              		.loc 1 17 0
  69              		.cfi_startproc
  70              		@ args = 0, pretend = 0, frame = 0
  71              		@ frame_needed = 0, uses_anonymous_args = 0
  72              	.LVL5:
  73 0000 08B5     		push	{r3, lr}
  74              		.cfi_def_cfa_offset 8
  75              		.cfi_offset 3, -8
  76              		.cfi_offset 14, -4
  77              	.LVL6:
  18:main.c        ****         int Compare;
  19:main.c        ****         int max_comp=1500;
  20:main.c        ****         int min_comp=6500;
  21:main.c        ****         int min_angle=0;
  22:main.c        ****         int max_angle=180;
  23:main.c        ****         Compare=((max_comp-min_comp)/(max_angle-min_angle))*(Angle-min_angle)+min_comp;
  78              		.loc 1 23 0
  79 0002 0449     		ldr	r1, .L7
  80 0004 FFF7FEFF 		bl	__aeabi_fmul
  81              	.LVL7:
  82 0008 0349     		ldr	r1, .L7+4
  83 000a FFF7FEFF 		bl	__aeabi_fadd
  84              	.LVL8:
  85 000e FFF7FEFF 		bl	__aeabi_f2iz
  86              	.LVL9:
  24:main.c        ****         return Compare;
  25:main.c        ****     }
  87              		.loc 1 25 0
  88 0012 08BD     		pop	{r3, pc}
  89              	.L8:
ARM GAS  C:\Users\Jorge\AppData\Local\Temp\cc5gHdnk.s 			page 3


  90              		.align	2
  91              	.L7:
  92 0014 0000D8C1 		.word	-1042808832
  93 0018 0020CB45 		.word	1170939904
  94              		.cfi_endproc
  95              	.LFE64:
  96              		.size	Theta2, .-Theta2
  97              		.global	__aeabi_f2d
  98              		.global	__aeabi_ddiv
  99              		.global	__aeabi_dmul
 100              		.global	__aeabi_d2f
 101              		.global	__aeabi_dsub
 102              		.global	__aeabi_dadd
 103              		.global	__aeabi_fsub
 104              		.global	__aeabi_fdiv
 105              		.global	__aeabi_fcmple
 106              		.global	__aeabi_fcmpge
 107              		.section	.text.main,"ax",%progbits
 108              		.align	2
 109              		.global	main
 110              		.thumb
 111              		.thumb_func
 112              		.type	main, %function
 113              	main:
 114              	.LFB65:
  26:main.c        ****     
  27:main.c        **** int main(void)
  28:main.c        **** {
 115              		.loc 1 28 0
 116              		.cfi_startproc
 117              		@ args = 0, pretend = 0, frame = 32
 118              		@ frame_needed = 0, uses_anonymous_args = 0
 119 0000 2DE9F04F 		push	{r4, r5, r6, r7, r8, r9, r10, fp, lr}
 120              		.cfi_def_cfa_offset 36
 121              		.cfi_offset 4, -36
 122              		.cfi_offset 5, -32
 123              		.cfi_offset 6, -28
 124              		.cfi_offset 7, -24
 125              		.cfi_offset 8, -20
 126              		.cfi_offset 9, -16
 127              		.cfi_offset 10, -12
 128              		.cfi_offset 11, -8
 129              		.cfi_offset 14, -4
 130 0004 89B0     		sub	sp, sp, #36
 131              		.cfi_def_cfa_offset 72
 132              	.LVL10:
  29:main.c        ****     float Angle1;
  30:main.c        ****     float incrementTheta1;
  31:main.c        ****     float Theta1dot; //Degrees per second velocity of the first servo
  32:main.c        ****     
  33:main.c        ****     float Angle2;
  34:main.c        ****     float incrementTheta2;
  35:main.c        ****     float Theta2dot; //Degrees per second velocity of the first servo
  36:main.c        ****     
  37:main.c        ****     float Xdot=1.0; //cm/sec
  38:main.c        ****     float Ydot=1.0; //cm/sec
  39:main.c        ****     
ARM GAS  C:\Users\Jorge\AppData\Local\Temp\cc5gHdnk.s 			page 4


  40:main.c        ****     float multiplier;
  41:main.c        ****     float J11inv;
  42:main.c        ****     float J12inv;
  43:main.c        ****     float J21inv;
  44:main.c        ****     float J22inv;
  45:main.c        ****     float J11;
  46:main.c        ****     float J12;
  47:main.c        ****     float J21;
  48:main.c        ****     float J22;
  49:main.c        ****     
  50:main.c        ****     float a2=5.0;
  51:main.c        ****     float a4=6.5;
  52:main.c        ****     
  53:main.c        ****     Servos_Start();
 133              		.loc 1 53 0
 134 0006 FFF7FEFF 		bl	Servos_Start
 135              	.LVL11:
  54:main.c        ****     
  55:main.c        ****     Angle1 = 0.0;
  56:main.c        ****     Angle2 = 90.0;
  57:main.c        ****     Servos_WriteCompare1(Theta1(Angle1));
 136              		.loc 1 57 0
 137 000a 0024     		movs	r4, #0
 138 000c 2046     		mov	r0, r4
 139 000e FFF7FEFF 		bl	Theta1
 140              	.LVL12:
 141 0012 80B2     		uxth	r0, r0
 142 0014 FFF7FEFF 		bl	Servos_WriteCompare1
 143              	.LVL13:
  58:main.c        ****     Servos_WriteCompare2(Theta2(Angle2));
 144              		.loc 1 58 0
 145 0018 9D4E     		ldr	r6, .L20+8
 146 001a 3046     		mov	r0, r6
 147 001c FFF7FEFF 		bl	Theta2
 148              	.LVL14:
 149 0020 80B2     		uxth	r0, r0
 150 0022 FFF7FEFF 		bl	Servos_WriteCompare2
 151              	.LVL15:
  59:main.c        ****     CyDelay(3000);
 152              		.loc 1 59 0
 153 0026 40F6B830 		movw	r0, #3000
 154 002a FFF7FEFF 		bl	CyDelay
 155              	.LVL16:
  60:main.c        ****     
  61:main.c        ****     while (Angle1<=180.0 && Angle1>=0.0 && Angle2<=180.0 && Angle2>=0.0)
 156              		.loc 1 61 0
 157 002e 11E1     		b	.L10
 158              	.LVL17:
 159              	.L15:
  62:main.c        ****     {
  63:main.c        ****         //Convert to radians
  64:main.c        ****         Angle1=(Angle1/180.0)*3.14159;
 160              		.loc 1 64 0
 161 0030 2046     		mov	r0, r4
 162 0032 FFF7FEFF 		bl	__aeabi_f2d
 163              	.LVL18:
 164 0036 0022     		movs	r2, #0
ARM GAS  C:\Users\Jorge\AppData\Local\Temp\cc5gHdnk.s 			page 5


 165 0038 964B     		ldr	r3, .L20+12
 166 003a FFF7FEFF 		bl	__aeabi_ddiv
 167              	.LVL19:
 168 003e 92A3     		adr	r3, .L20
 169 0040 D3E90023 		ldrd	r2, [r3]
 170 0044 FFF7FEFF 		bl	__aeabi_dmul
 171              	.LVL20:
 172 0048 FFF7FEFF 		bl	__aeabi_d2f
 173              	.LVL21:
 174 004c 8346     		mov	fp, r0
 175              	.LVL22:
  65:main.c        ****         Angle2=(Angle2/180.0)*3.14159;
 176              		.loc 1 65 0
 177 004e 3046     		mov	r0, r6
 178              	.LVL23:
 179 0050 FFF7FEFF 		bl	__aeabi_f2d
 180              	.LVL24:
 181 0054 0022     		movs	r2, #0
 182 0056 8F4B     		ldr	r3, .L20+12
 183 0058 FFF7FEFF 		bl	__aeabi_ddiv
 184              	.LVL25:
 185 005c 8AA3     		adr	r3, .L20
 186 005e D3E90023 		ldrd	r2, [r3]
 187 0062 FFF7FEFF 		bl	__aeabi_dmul
 188              	.LVL26:
 189 0066 FFF7FEFF 		bl	__aeabi_d2f
 190              	.LVL27:
 191 006a 8246     		mov	r10, r0
 192              	.LVL28:
  66:main.c        ****         
  67:main.c        ****         J11=-a4*sin(Angle1)*cos(Angle2)-a4*cos(Angle1)*sin(Angle2)-a2*sin(Angle1);
 193              		.loc 1 67 0
 194 006c 5846     		mov	r0, fp
 195              	.LVL29:
 196 006e FFF7FEFF 		bl	__aeabi_f2d
 197              	.LVL30:
 198 0072 0646     		mov	r6, r0
 199 0074 0F46     		mov	r7, r1
 200 0076 FFF7FEFF 		bl	sin
 201              	.LVL31:
 202 007a CDE90001 		strd	r0, [sp]
 203 007e 0022     		movs	r2, #0
 204 0080 854B     		ldr	r3, .L20+16
 205 0082 FFF7FEFF 		bl	__aeabi_dmul
 206              	.LVL32:
 207 0086 8046     		mov	r8, r0
 208 0088 8946     		mov	r9, r1
 209 008a 5046     		mov	r0, r10
 210 008c FFF7FEFF 		bl	__aeabi_f2d
 211              	.LVL33:
 212 0090 0446     		mov	r4, r0
 213 0092 0D46     		mov	r5, r1
 214 0094 FFF7FEFF 		bl	cos
 215              	.LVL34:
 216 0098 CDE90201 		strd	r0, [sp, #8]
 217 009c 0246     		mov	r2, r0
 218 009e 0B46     		mov	r3, r1
ARM GAS  C:\Users\Jorge\AppData\Local\Temp\cc5gHdnk.s 			page 6


 219 00a0 4046     		mov	r0, r8
 220 00a2 4946     		mov	r1, r9
 221 00a4 FFF7FEFF 		bl	__aeabi_dmul
 222              	.LVL35:
 223 00a8 8046     		mov	r8, r0
 224 00aa 8946     		mov	r9, r1
 225 00ac 3046     		mov	r0, r6
 226 00ae 3946     		mov	r1, r7
 227 00b0 FFF7FEFF 		bl	cos
 228              	.LVL36:
 229 00b4 CDE90601 		strd	r0, [sp, #24]
 230 00b8 0022     		movs	r2, #0
 231 00ba 784B     		ldr	r3, .L20+20
 232 00bc FFF7FEFF 		bl	__aeabi_dmul
 233              	.LVL37:
 234 00c0 0646     		mov	r6, r0
 235 00c2 0F46     		mov	r7, r1
 236 00c4 2046     		mov	r0, r4
 237 00c6 2946     		mov	r1, r5
 238 00c8 FFF7FEFF 		bl	sin
 239              	.LVL38:
 240 00cc CDE90401 		strd	r0, [sp, #16]
 241 00d0 0246     		mov	r2, r0
 242 00d2 0B46     		mov	r3, r1
 243 00d4 3046     		mov	r0, r6
 244 00d6 3946     		mov	r1, r7
 245 00d8 FFF7FEFF 		bl	__aeabi_dmul
 246              	.LVL39:
 247 00dc 0246     		mov	r2, r0
 248 00de 0B46     		mov	r3, r1
 249 00e0 4046     		mov	r0, r8
 250 00e2 4946     		mov	r1, r9
 251 00e4 FFF7FEFF 		bl	__aeabi_dsub
 252              	.LVL40:
 253 00e8 8046     		mov	r8, r0
 254 00ea 8946     		mov	r9, r1
 255 00ec 0022     		movs	r2, #0
 256 00ee 6C4B     		ldr	r3, .L20+24
 257 00f0 DDE90001 		ldrd	r0, [sp]
 258 00f4 FFF7FEFF 		bl	__aeabi_dmul
 259              	.LVL41:
 260 00f8 0246     		mov	r2, r0
 261 00fa 0B46     		mov	r3, r1
 262 00fc 4046     		mov	r0, r8
 263 00fe 4946     		mov	r1, r9
 264 0100 FFF7FEFF 		bl	__aeabi_dsub
 265              	.LVL42:
 266 0104 FFF7FEFF 		bl	__aeabi_d2f
 267              	.LVL43:
 268 0108 0446     		mov	r4, r0
 269              	.LVL44:
  68:main.c        ****         J21=a4*cos(Angle1)*cos(Angle2)-a4*sin(Angle1)*sin(Angle2)+a2*cos(Angle1);
 270              		.loc 1 68 0
 271 010a 3246     		mov	r2, r6
 272 010c 3B46     		mov	r3, r7
 273 010e DDE90201 		ldrd	r0, [sp, #8]
 274              	.LVL45:
ARM GAS  C:\Users\Jorge\AppData\Local\Temp\cc5gHdnk.s 			page 7


 275 0112 FFF7FEFF 		bl	__aeabi_dmul
 276              	.LVL46:
 277 0116 0646     		mov	r6, r0
 278 0118 0F46     		mov	r7, r1
 279 011a 0022     		movs	r2, #0
 280 011c 5F4B     		ldr	r3, .L20+20
 281 011e DDE90001 		ldrd	r0, [sp]
 282 0122 FFF7FEFF 		bl	__aeabi_dmul
 283              	.LVL47:
 284 0126 0246     		mov	r2, r0
 285 0128 0B46     		mov	r3, r1
 286 012a DDE90401 		ldrd	r0, [sp, #16]
 287 012e FFF7FEFF 		bl	__aeabi_dmul
 288              	.LVL48:
 289 0132 0246     		mov	r2, r0
 290 0134 0B46     		mov	r3, r1
 291 0136 3046     		mov	r0, r6
 292 0138 3946     		mov	r1, r7
 293 013a FFF7FEFF 		bl	__aeabi_dsub
 294              	.LVL49:
 295 013e 0646     		mov	r6, r0
 296 0140 0F46     		mov	r7, r1
 297 0142 0022     		movs	r2, #0
 298 0144 564B     		ldr	r3, .L20+24
 299 0146 DDE90601 		ldrd	r0, [sp, #24]
 300 014a FFF7FEFF 		bl	__aeabi_dmul
 301              	.LVL50:
 302 014e 0246     		mov	r2, r0
 303 0150 0B46     		mov	r3, r1
 304 0152 3046     		mov	r0, r6
 305 0154 3946     		mov	r1, r7
 306 0156 FFF7FEFF 		bl	__aeabi_dadd
 307              	.LVL51:
 308 015a FFF7FEFF 		bl	__aeabi_d2f
 309              	.LVL52:
 310 015e 0546     		mov	r5, r0
 311              	.LVL53:
  69:main.c        ****         J12=-a4*sin(Angle1)*cos(Angle2)-a4*cos(Angle1)*sin(Angle2);
 312              		.loc 1 69 0
 313 0160 4046     		mov	r0, r8
 314              	.LVL54:
 315 0162 4946     		mov	r1, r9
 316 0164 FFF7FEFF 		bl	__aeabi_d2f
 317              	.LVL55:
 318 0168 8046     		mov	r8, r0
 319              	.LVL56:
  70:main.c        ****         J22=a4*cos(Angle1)*cos(Angle2)-a4*sin(Angle1)*sin(Angle2);
 320              		.loc 1 70 0
 321 016a 3046     		mov	r0, r6
 322              	.LVL57:
 323 016c 3946     		mov	r1, r7
 324 016e FFF7FEFF 		bl	__aeabi_d2f
 325              	.LVL58:
 326 0172 0746     		mov	r7, r0
 327              	.LVL59:
  71:main.c        ****         
  72:main.c        ****         multiplier=1.0/(J11*J22-J12*J21);
ARM GAS  C:\Users\Jorge\AppData\Local\Temp\cc5gHdnk.s 			page 8


 328              		.loc 1 72 0
 329 0174 0146     		mov	r1, r0
 330 0176 2046     		mov	r0, r4
 331              	.LVL60:
 332 0178 FFF7FEFF 		bl	__aeabi_fmul
 333              	.LVL61:
 334 017c 0646     		mov	r6, r0
 335 017e 4146     		mov	r1, r8
 336 0180 2846     		mov	r0, r5
 337 0182 FFF7FEFF 		bl	__aeabi_fmul
 338              	.LVL62:
 339 0186 0146     		mov	r1, r0
 340 0188 3046     		mov	r0, r6
 341 018a FFF7FEFF 		bl	__aeabi_fsub
 342              	.LVL63:
 343 018e 0146     		mov	r1, r0
 344 0190 4FF07E50 		mov	r0, #1065353216
 345 0194 FFF7FEFF 		bl	__aeabi_fdiv
 346              	.LVL64:
 347 0198 0646     		mov	r6, r0
 348              	.LVL65:
  73:main.c        ****         
  74:main.c        ****         J11inv= multiplier*J22;
 349              		.loc 1 74 0
 350 019a 0146     		mov	r1, r0
 351 019c 3846     		mov	r0, r7
 352              	.LVL66:
 353 019e FFF7FEFF 		bl	__aeabi_fmul
 354              	.LVL67:
 355 01a2 0746     		mov	r7, r0
 356              	.LVL68:
  75:main.c        ****         J21inv=multiplier*(-J21);
 357              		.loc 1 75 0
 358 01a4 05F10041 		add	r1, r5, #-2147483648
 359 01a8 3046     		mov	r0, r6
 360              	.LVL69:
 361 01aa FFF7FEFF 		bl	__aeabi_fmul
 362              	.LVL70:
 363 01ae 0546     		mov	r5, r0
 364              	.LVL71:
  76:main.c        ****         J12inv=multiplier*(-J12);
 365              		.loc 1 76 0
 366 01b0 08F10041 		add	r1, r8, #-2147483648
 367 01b4 3046     		mov	r0, r6
 368              	.LVL72:
 369 01b6 FFF7FEFF 		bl	__aeabi_fmul
 370              	.LVL73:
 371 01ba 8046     		mov	r8, r0
 372              	.LVL74:
  77:main.c        ****         J22inv=multiplier*J11;
 373              		.loc 1 77 0
 374 01bc 3146     		mov	r1, r6
 375 01be 2046     		mov	r0, r4
 376              	.LVL75:
 377 01c0 FFF7FEFF 		bl	__aeabi_fmul
 378              	.LVL76:
 379 01c4 0646     		mov	r6, r0
ARM GAS  C:\Users\Jorge\AppData\Local\Temp\cc5gHdnk.s 			page 9


 380              	.LVL77:
  78:main.c        ****         
  79:main.c        ****         Theta1dot=J11inv*Xdot+J12inv*Ydot;
 381              		.loc 1 79 0
 382 01c6 4146     		mov	r1, r8
 383 01c8 3846     		mov	r0, r7
 384              	.LVL78:
 385 01ca FFF7FEFF 		bl	__aeabi_fadd
 386              	.LVL79:
  80:main.c        ****         incrementTheta1=Theta1dot/100.0;
 387              		.loc 1 80 0
 388 01ce 3549     		ldr	r1, .L20+28
 389 01d0 FFF7FEFF 		bl	__aeabi_fdiv
 390              	.LVL80:
 391 01d4 0446     		mov	r4, r0
 392              	.LVL81:
  81:main.c        ****         Theta2dot=J21inv*Xdot+J22inv*Ydot;
 393              		.loc 1 81 0
 394 01d6 3146     		mov	r1, r6
 395 01d8 2846     		mov	r0, r5
 396              	.LVL82:
 397 01da FFF7FEFF 		bl	__aeabi_fadd
 398              	.LVL83:
  82:main.c        ****         incrementTheta2=Theta2dot/100.0;
 399              		.loc 1 82 0
 400 01de 3149     		ldr	r1, .L20+28
 401 01e0 FFF7FEFF 		bl	__aeabi_fdiv
 402              	.LVL84:
 403 01e4 0546     		mov	r5, r0
 404              	.LVL85:
  83:main.c        ****         
  84:main.c        ****         Angle1 = Angle1 + incrementTheta1;
 405              		.loc 1 84 0
 406 01e6 2146     		mov	r1, r4
 407 01e8 5846     		mov	r0, fp
 408              	.LVL86:
 409 01ea FFF7FEFF 		bl	__aeabi_fadd
 410              	.LVL87:
 411 01ee 0446     		mov	r4, r0
 412              	.LVL88:
  85:main.c        ****         Angle2 = Angle2 + incrementTheta2;
 413              		.loc 1 85 0
 414 01f0 2946     		mov	r1, r5
 415 01f2 5046     		mov	r0, r10
 416              	.LVL89:
 417 01f4 FFF7FEFF 		bl	__aeabi_fadd
 418              	.LVL90:
 419 01f8 0546     		mov	r5, r0
 420              	.LVL91:
  86:main.c        ****         
  87:main.c        ****         //Convert back to degrees
  88:main.c        ****         Angle1=(Angle1/3.14159)*180.0;
 421              		.loc 1 88 0
 422 01fa 2046     		mov	r0, r4
 423              	.LVL92:
 424 01fc FFF7FEFF 		bl	__aeabi_f2d
 425              	.LVL93:
ARM GAS  C:\Users\Jorge\AppData\Local\Temp\cc5gHdnk.s 			page 10


 426 0200 21A3     		adr	r3, .L20
 427 0202 D3E90023 		ldrd	r2, [r3]
 428 0206 FFF7FEFF 		bl	__aeabi_ddiv
 429              	.LVL94:
 430 020a 0022     		movs	r2, #0
 431 020c 214B     		ldr	r3, .L20+12
 432 020e FFF7FEFF 		bl	__aeabi_dmul
 433              	.LVL95:
 434 0212 FFF7FEFF 		bl	__aeabi_d2f
 435              	.LVL96:
 436 0216 0446     		mov	r4, r0
 437              	.LVL97:
  89:main.c        ****         Angle2=(Angle2/3.14159)*180.0;
 438              		.loc 1 89 0
 439 0218 2846     		mov	r0, r5
 440              	.LVL98:
 441 021a FFF7FEFF 		bl	__aeabi_f2d
 442              	.LVL99:
 443 021e 1AA3     		adr	r3, .L20
 444 0220 D3E90023 		ldrd	r2, [r3]
 445 0224 FFF7FEFF 		bl	__aeabi_ddiv
 446              	.LVL100:
 447 0228 0022     		movs	r2, #0
 448 022a 1A4B     		ldr	r3, .L20+12
 449 022c FFF7FEFF 		bl	__aeabi_dmul
 450              	.LVL101:
 451 0230 FFF7FEFF 		bl	__aeabi_d2f
 452              	.LVL102:
 453 0234 0646     		mov	r6, r0
 454              	.LVL103:
  90:main.c        ****         
  91:main.c        ****         Servos_WriteCompare1(Theta1(Angle1));
 455              		.loc 1 91 0
 456 0236 2046     		mov	r0, r4
 457              	.LVL104:
 458 0238 FFF7FEFF 		bl	Theta1
 459              	.LVL105:
 460 023c 80B2     		uxth	r0, r0
 461 023e FFF7FEFF 		bl	Servos_WriteCompare1
 462              	.LVL106:
  92:main.c        ****         Servos_WriteCompare1(Theta1(Angle2));
 463              		.loc 1 92 0
 464 0242 3046     		mov	r0, r6
 465 0244 FFF7FEFF 		bl	Theta1
 466              	.LVL107:
 467 0248 80B2     		uxth	r0, r0
 468 024a FFF7FEFF 		bl	Servos_WriteCompare1
 469              	.LVL108:
  93:main.c        ****      
  94:main.c        ****         CyDelay(10);
 470              		.loc 1 94 0
 471 024e 0A20     		movs	r0, #10
 472 0250 FFF7FEFF 		bl	CyDelay
 473              	.LVL109:
 474              	.L10:
  61:main.c        ****     {
 475              		.loc 1 61 0
ARM GAS  C:\Users\Jorge\AppData\Local\Temp\cc5gHdnk.s 			page 11


 476 0254 1449     		ldr	r1, .L20+32
 477 0256 2046     		mov	r0, r4
 478 0258 FFF7FEFF 		bl	__aeabi_fcmple
 479              	.LVL110:
 480 025c 80B1     		cbz	r0, .L11
  61:main.c        ****     {
 481              		.loc 1 61 0 is_stmt 0 discriminator 1
 482 025e 0021     		movs	r1, #0
 483 0260 2046     		mov	r0, r4
 484 0262 FFF7FEFF 		bl	__aeabi_fcmpge
 485              	.LVL111:
 486 0266 58B1     		cbz	r0, .L11
  61:main.c        ****     {
 487              		.loc 1 61 0 discriminator 2
 488 0268 0F49     		ldr	r1, .L20+32
 489 026a 3046     		mov	r0, r6
 490 026c FFF7FEFF 		bl	__aeabi_fcmple
 491              	.LVL112:
 492 0270 30B1     		cbz	r0, .L11
  61:main.c        ****     {
 493              		.loc 1 61 0 discriminator 3
 494 0272 0021     		movs	r1, #0
 495 0274 3046     		mov	r0, r6
 496 0276 FFF7FEFF 		bl	__aeabi_fcmpge
 497              	.LVL113:
 498 027a 0028     		cmp	r0, #0
 499 027c 7FF4D8AE 		bne	.L15
 500              	.L11:
  95:main.c        ****     }
  96:main.c        ****     
  97:main.c        **** }
 501              		.loc 1 97 0 is_stmt 1
 502 0280 0020     		movs	r0, #0
 503 0282 09B0     		add	sp, sp, #36
 504              		.cfi_def_cfa_offset 36
 505              		@ sp needed
 506 0284 BDE8F08F 		pop	{r4, r5, r6, r7, r8, r9, r10, fp, pc}
 507              	.LVL114:
 508              	.L21:
 509              		.align	3
 510              	.L20:
 511 0288 6E861BF0 		.word	-266631570
 512 028c F9210940 		.word	1074340345
 513 0290 0000B442 		.word	1119092736
 514 0294 00806640 		.word	1080459264
 515 0298 00001AC0 		.word	-1072037888
 516 029c 00001A40 		.word	1075445760
 517 02a0 00001440 		.word	1075052544
 518 02a4 0000C842 		.word	1120403456
 519 02a8 00003443 		.word	1127481344
 520              		.cfi_endproc
 521              	.LFE65:
 522              		.size	main, .-main
 523              		.text
 524              	.Letext0:
 525              		.file 2 "c:\\program files (x86)\\cypress\\psoc creator\\4.3\\psoc creator\\import\\gnu\\arm\\5.4.
 526              		.file 3 "c:\\program files (x86)\\cypress\\psoc creator\\4.3\\psoc creator\\import\\gnu\\arm\\5.4.
ARM GAS  C:\Users\Jorge\AppData\Local\Temp\cc5gHdnk.s 			page 12


 527              		.file 4 "Generated_Source\\PSoC5/Servos.h"
 528              		.file 5 "Generated_Source\\PSoC5/CyLib.h"
 529              		.file 6 "c:\\program files (x86)\\cypress\\psoc creator\\4.3\\psoc creator\\import\\gnu\\arm\\5.4.
 530              		.file 7 "Generated_Source\\PSoC5/core_cm3.h"