ARM GAS  C:\Users\Jorge\AppData\Local\Temp\ccQsYZz8.s 			page 1


   1              		.syntax unified
   2              		.cpu cortex-m3
   3              		.fpu softvfp
   4              		.eabi_attribute 20, 1
   5              		.eabi_attribute 21, 1
   6              		.eabi_attribute 23, 3
   7              		.eabi_attribute 24, 1
   8              		.eabi_attribute 25, 1
   9              		.eabi_attribute 26, 1
  10              		.eabi_attribute 30, 1
  11              		.eabi_attribute 34, 1
  12              		.eabi_attribute 18, 4
  13              		.thumb
  14              		.syntax unified
  15              		.file	"main.c"
  16              		.text
  17              	.Ltext0:
  18              		.cfi_sections	.debug_frame
  19              		.global	__aeabi_i2f
  20              		.global	__aeabi_fmul
  21              		.global	__aeabi_f2iz
  22              		.section	.text.main,"ax",%progbits
  23              		.align	2
  24              		.global	main
  25              		.thumb
  26              		.thumb_func
  27              		.type	main, %function
  28              	main:
  29              	.LFB63:
  30              		.file 1 "main.c"
   1:main.c        **** 
   2:main.c        **** #include "project.h"
   3:main.c        **** 
   4:main.c        **** int main(void)
   5:main.c        **** {   
  31              		.loc 1 5 0
  32              		.cfi_startproc
  33              		@ args = 0, pretend = 0, frame = 0
  34              		@ frame_needed = 0, uses_anonymous_args = 0
  35 0000 70B5     		push	{r4, r5, r6, lr}
  36              		.cfi_def_cfa_offset 16
  37              		.cfi_offset 4, -16
  38              		.cfi_offset 5, -12
  39              		.cfi_offset 6, -8
  40              		.cfi_offset 14, -4
  41              	.LVL0:
   6:main.c        ****     int Count;
   7:main.c        ****     int Compare;
   8:main.c        ****     int time;
   9:main.c        ****     int Target_Count1=1000;
  10:main.c        ****     int Target_Count2=2000;
  11:main.c        ****     int error;
  12:main.c        ****     float Kp=0.47;
  13:main.c        ****     uint8 receive;
  14:main.c        ****     uint8 val1;
  15:main.c        ****     uint8 val2;
  16:main.c        ****     uint8 i;
ARM GAS  C:\Users\Jorge\AppData\Local\Temp\ccQsYZz8.s 			page 2


  17:main.c        ****     uint8 j;
  18:main.c        ****     int speed;
  19:main.c        ****     QuadDec_1_Start();
  42              		.loc 1 19 0
  43 0002 FFF7FEFF 		bl	QuadDec_1_Start
  44              	.LVL1:
  20:main.c        ****     LCD_Char_1_Start();
  45              		.loc 1 20 0
  46 0006 FFF7FEFF 		bl	LCD_Char_1_Start
  47              	.LVL2:
  21:main.c        ****     PWM_1_Start();
  48              		.loc 1 21 0
  49 000a FFF7FEFF 		bl	PWM_1_Start
  50              	.LVL3:
  22:main.c        ****     UART_1_Start();
  51              		.loc 1 22 0
  52 000e FFF7FEFF 		bl	UART_1_Start
  53              	.LVL4:
  54              	.L18:
  23:main.c        ****     for(;;)
  24:main.c        ****     {
  25:main.c        ****             receive=UART_1_GetChar();
  55              		.loc 1 25 0
  56 0012 FFF7FEFF 		bl	UART_1_GetChar
  57              	.LVL5:
  26:main.c        ****                 while (receive==0)
  58              		.loc 1 26 0
  59 0016 01E0     		b	.L2
  60              	.L3:
  27:main.c        ****             {
  28:main.c        ****             receive=UART_1_GetChar();
  61              		.loc 1 28 0
  62 0018 FFF7FEFF 		bl	UART_1_GetChar
  63              	.LVL6:
  64              	.L2:
  26:main.c        ****                 while (receive==0)
  65              		.loc 1 26 0
  66 001c 0028     		cmp	r0, #0
  67 001e FBD0     		beq	.L3
  68 0020 0025     		movs	r5, #0
  69 0022 43E0     		b	.L4
  70              	.LVL7:
  71              	.L10:
  29:main.c        ****             }
  30:main.c        ****             
  31:main.c        **** //                while(1)
  32:main.c        **** //                {
  33:main.c        **** //                    receive=UART_1_GetChar();
  34:main.c        **** //                        while (receive==0)
  35:main.c        **** //                    {
  36:main.c        **** //                    receive=UART_1_GetChar();
  37:main.c        **** //                    }
  38:main.c        **** //                    LCD_Char_1_ClearDisplay();
  39:main.c        **** //                    LCD_Char_1_Position(0,0);
  40:main.c        **** //                    LCD_Char_1_PrintNumber(receive);
  41:main.c        **** //                    i=1;
  42:main.c        **** //                    j=1;
ARM GAS  C:\Users\Jorge\AppData\Local\Temp\ccQsYZz8.s 			page 3


  43:main.c        **** //                    while(i<=10)
  44:main.c        **** //                    {
  45:main.c        **** //                        UART_1_PutChar(j);
  46:main.c        **** //                        CyDelay(200);
  47:main.c        **** //                        i=i+1;
  48:main.c        **** //                        j=j+10;
  49:main.c        **** //                    }
  50:main.c        **** //                    
  51:main.c        **** //                }
  52:main.c        ****         time=0;
  53:main.c        ****         
  54:main.c        ****         while(time<2000)
  55:main.c        ****         {
  56:main.c        ****             Count=QuadDec_1_GetCounter();
  72              		.loc 1 56 0
  73 0024 FFF7FEFF 		bl	QuadDec_1_GetCounter
  74              	.LVL8:
  75 0028 0446     		mov	r4, r0
  76              	.LVL9:
  57:main.c        ****             error=Target_Count1-Count;
  77              		.loc 1 57 0
  78 002a C0F57A70 		rsb	r0, r0, #1000
  79              	.LVL10:
  58:main.c        ****             if (error>0)
  80              		.loc 1 58 0
  81 002e 0028     		cmp	r0, #0
  82 0030 10DD     		ble	.L5
  59:main.c        ****             {
  60:main.c        ****                 speed=Kp*error;
  83              		.loc 1 60 0
  84 0032 FFF7FEFF 		bl	__aeabi_i2f
  85              	.LVL11:
  86 0036 4449     		ldr	r1, .L24
  87 0038 FFF7FEFF 		bl	__aeabi_fmul
  88              	.LVL12:
  89 003c FFF7FEFF 		bl	__aeabi_f2iz
  90              	.LVL13:
  61:main.c        ****                 if (speed>100)
  91              		.loc 1 61 0
  92 0040 6428     		cmp	r0, #100
  93 0042 00DD     		ble	.L6
  62:main.c        ****                 {
  63:main.c        ****                     speed=100;
  94              		.loc 1 63 0
  95 0044 6420     		movs	r0, #100
  96              	.LVL14:
  97              	.L6:
  64:main.c        ****                 }
  65:main.c        ****                 PWM_1_WriteCompare1(speed);
  98              		.loc 1 65 0
  99 0046 C0B2     		uxtb	r0, r0
 100              	.LVL15:
 101 0048 FFF7FEFF 		bl	PWM_1_WriteCompare1
 102              	.LVL16:
  66:main.c        ****                 PWM_1_WriteCompare2(0);
 103              		.loc 1 66 0
 104 004c 0020     		movs	r0, #0
ARM GAS  C:\Users\Jorge\AppData\Local\Temp\ccQsYZz8.s 			page 4


 105 004e FFF7FEFF 		bl	PWM_1_WriteCompare2
 106              	.LVL17:
 107 0052 10E0     		b	.L7
 108              	.LVL18:
 109              	.L5:
  67:main.c        ****                 
  68:main.c        ****             }
  69:main.c        ****             else
  70:main.c        ****             {
  71:main.c        ****                 speed=-Kp*error;
 110              		.loc 1 71 0
 111 0054 FFF7FEFF 		bl	__aeabi_i2f
 112              	.LVL19:
 113 0058 3C49     		ldr	r1, .L24+4
 114 005a FFF7FEFF 		bl	__aeabi_fmul
 115              	.LVL20:
 116 005e FFF7FEFF 		bl	__aeabi_f2iz
 117              	.LVL21:
 118 0062 0646     		mov	r6, r0
 119              	.LVL22:
  72:main.c        ****                 if (speed>100)
 120              		.loc 1 72 0
 121 0064 6428     		cmp	r0, #100
 122 0066 00DD     		ble	.L8
  73:main.c        ****                 {
  74:main.c        ****                     speed=100;
 123              		.loc 1 74 0
 124 0068 6426     		movs	r6, #100
 125              	.L8:
 126              	.LVL23:
  75:main.c        ****                 }
  76:main.c        ****                 PWM_1_WriteCompare1(0);
 127              		.loc 1 76 0
 128 006a 0020     		movs	r0, #0
 129 006c FFF7FEFF 		bl	PWM_1_WriteCompare1
 130              	.LVL24:
  77:main.c        ****                 PWM_1_WriteCompare2(speed);
 131              		.loc 1 77 0
 132 0070 F0B2     		uxtb	r0, r6
 133 0072 FFF7FEFF 		bl	PWM_1_WriteCompare2
 134              	.LVL25:
 135              	.L7:
  78:main.c        ****             }
  79:main.c        ****             LCD_Char_1_ClearDisplay();
 136              		.loc 1 79 0
 137 0076 0120     		movs	r0, #1
 138 0078 FFF7FEFF 		bl	LCD_Char_1_WriteControl
 139              	.LVL26:
  80:main.c        ****             LCD_Char_1_Position(0,0);
 140              		.loc 1 80 0
 141 007c 0021     		movs	r1, #0
 142 007e 0846     		mov	r0, r1
 143 0080 FFF7FEFF 		bl	LCD_Char_1_Position
 144              	.LVL27:
  81:main.c        ****             LCD_Char_1_PrintNumber(Count);
 145              		.loc 1 81 0
 146 0084 A0B2     		uxth	r0, r4
ARM GAS  C:\Users\Jorge\AppData\Local\Temp\ccQsYZz8.s 			page 5


 147 0086 FFF7FEFF 		bl	LCD_Char_1_PrintU32Number
 148              	.LVL28:
  82:main.c        ****             val1=Count/256;
 149              		.loc 1 82 0
 150 008a 2046     		mov	r0, r4
 151 008c 002C     		cmp	r4, #0
 152 008e 01DA     		bge	.L9
 153              	.LVL29:
 154 0090 04F1FF00 		add	r0, r4, #255
 155              	.LVL30:
 156              	.L9:
  83:main.c        ****             val2=Count-val1*256;
 157              		.loc 1 83 0
 158 0094 E4B2     		uxtb	r4, r4
 159              	.LVL31:
  84:main.c        ****             UART_1_PutChar(val1);
 160              		.loc 1 84 0
 161 0096 C0F30720 		ubfx	r0, r0, #8, #8
 162              	.LVL32:
 163 009a FFF7FEFF 		bl	UART_1_PutChar
 164              	.LVL33:
  85:main.c        ****             CyDelay(10);
 165              		.loc 1 85 0
 166 009e 0A20     		movs	r0, #10
 167 00a0 FFF7FEFF 		bl	CyDelay
 168              	.LVL34:
  86:main.c        ****             UART_1_PutChar(val2);
 169              		.loc 1 86 0
 170 00a4 2046     		mov	r0, r4
 171 00a6 FFF7FEFF 		bl	UART_1_PutChar
 172              	.LVL35:
  87:main.c        ****             time=time+10;
 173              		.loc 1 87 0
 174 00aa 0A35     		adds	r5, r5, #10
 175              	.LVL36:
 176              	.L4:
  54:main.c        ****         {
 177              		.loc 1 54 0
 178 00ac B5F5FA6F 		cmp	r5, #2000
 179 00b0 B8DB     		blt	.L10
 180 00b2 0025     		movs	r5, #0
 181              	.LVL37:
 182 00b4 43E0     		b	.L11
 183              	.LVL38:
 184              	.L17:
  88:main.c        ****         }
  89:main.c        ****         
  90:main.c        ****         time=0;
  91:main.c        ****         while(time<2000)
  92:main.c        ****         {
  93:main.c        ****             Count=QuadDec_1_GetCounter();
 185              		.loc 1 93 0
 186 00b6 FFF7FEFF 		bl	QuadDec_1_GetCounter
 187              	.LVL39:
 188 00ba 0446     		mov	r4, r0
 189              	.LVL40:
  94:main.c        ****             error=Target_Count2-Count;
ARM GAS  C:\Users\Jorge\AppData\Local\Temp\ccQsYZz8.s 			page 6


 190              		.loc 1 94 0
 191 00bc C0F5FA60 		rsb	r0, r0, #2000
 192              	.LVL41:
  95:main.c        ****             if (error>0)
 193              		.loc 1 95 0
 194 00c0 0028     		cmp	r0, #0
 195 00c2 10DD     		ble	.L12
  96:main.c        ****             {
  97:main.c        ****                 speed=Kp*error;
 196              		.loc 1 97 0
 197 00c4 FFF7FEFF 		bl	__aeabi_i2f
 198              	.LVL42:
 199 00c8 1F49     		ldr	r1, .L24
 200 00ca FFF7FEFF 		bl	__aeabi_fmul
 201              	.LVL43:
 202 00ce FFF7FEFF 		bl	__aeabi_f2iz
 203              	.LVL44:
  98:main.c        ****                 if (speed>100)
 204              		.loc 1 98 0
 205 00d2 6428     		cmp	r0, #100
 206 00d4 00DD     		ble	.L13
  99:main.c        ****                 {
 100:main.c        ****                     speed=100;
 207              		.loc 1 100 0
 208 00d6 6420     		movs	r0, #100
 209              	.LVL45:
 210              	.L13:
 101:main.c        ****                 }
 102:main.c        ****                 PWM_1_WriteCompare1(speed);
 211              		.loc 1 102 0
 212 00d8 C0B2     		uxtb	r0, r0
 213              	.LVL46:
 214 00da FFF7FEFF 		bl	PWM_1_WriteCompare1
 215              	.LVL47:
 103:main.c        ****                 PWM_1_WriteCompare2(0);
 216              		.loc 1 103 0
 217 00de 0020     		movs	r0, #0
 218 00e0 FFF7FEFF 		bl	PWM_1_WriteCompare2
 219              	.LVL48:
 220 00e4 10E0     		b	.L14
 221              	.LVL49:
 222              	.L12:
 104:main.c        ****                 
 105:main.c        ****             }
 106:main.c        ****             else
 107:main.c        ****             {
 108:main.c        ****                 speed=-Kp*error;
 223              		.loc 1 108 0
 224 00e6 FFF7FEFF 		bl	__aeabi_i2f
 225              	.LVL50:
 226 00ea 1849     		ldr	r1, .L24+4
 227 00ec FFF7FEFF 		bl	__aeabi_fmul
 228              	.LVL51:
 229 00f0 FFF7FEFF 		bl	__aeabi_f2iz
 230              	.LVL52:
 231 00f4 0646     		mov	r6, r0
 232              	.LVL53:
ARM GAS  C:\Users\Jorge\AppData\Local\Temp\ccQsYZz8.s 			page 7


 109:main.c        ****                 if (speed>100)
 233              		.loc 1 109 0
 234 00f6 6428     		cmp	r0, #100
 235 00f8 00DD     		ble	.L15
 110:main.c        ****                 {
 111:main.c        ****                     speed=100;
 236              		.loc 1 111 0
 237 00fa 6426     		movs	r6, #100
 238              	.L15:
 239              	.LVL54:
 112:main.c        ****                 }
 113:main.c        ****                 PWM_1_WriteCompare1(0);
 240              		.loc 1 113 0
 241 00fc 0020     		movs	r0, #0
 242 00fe FFF7FEFF 		bl	PWM_1_WriteCompare1
 243              	.LVL55:
 114:main.c        ****                 PWM_1_WriteCompare2(speed);
 244              		.loc 1 114 0
 245 0102 F0B2     		uxtb	r0, r6
 246 0104 FFF7FEFF 		bl	PWM_1_WriteCompare2
 247              	.LVL56:
 248              	.L14:
 115:main.c        ****             }
 116:main.c        ****             LCD_Char_1_ClearDisplay();
 249              		.loc 1 116 0
 250 0108 0120     		movs	r0, #1
 251 010a FFF7FEFF 		bl	LCD_Char_1_WriteControl
 252              	.LVL57:
 117:main.c        ****             LCD_Char_1_Position(0,0);
 253              		.loc 1 117 0
 254 010e 0021     		movs	r1, #0
 255 0110 0846     		mov	r0, r1
 256 0112 FFF7FEFF 		bl	LCD_Char_1_Position
 257              	.LVL58:
 118:main.c        ****             LCD_Char_1_PrintNumber(Count);
 258              		.loc 1 118 0
 259 0116 A0B2     		uxth	r0, r4
 260 0118 FFF7FEFF 		bl	LCD_Char_1_PrintU32Number
 261              	.LVL59:
 119:main.c        ****             val1=Count/256;
 262              		.loc 1 119 0
 263 011c 2046     		mov	r0, r4
 264 011e 002C     		cmp	r4, #0
 265 0120 01DA     		bge	.L16
 266              	.LVL60:
 267 0122 04F1FF00 		add	r0, r4, #255
 268              	.LVL61:
 269              	.L16:
 120:main.c        ****             val2=Count-val1*256;
 270              		.loc 1 120 0
 271 0126 E4B2     		uxtb	r4, r4
 272              	.LVL62:
 121:main.c        ****             UART_1_PutChar(val1);
 273              		.loc 1 121 0
 274 0128 C0F30720 		ubfx	r0, r0, #8, #8
 275              	.LVL63:
 276 012c FFF7FEFF 		bl	UART_1_PutChar
ARM GAS  C:\Users\Jorge\AppData\Local\Temp\ccQsYZz8.s 			page 8


 277              	.LVL64:
 122:main.c        ****             CyDelay(10);
 278              		.loc 1 122 0
 279 0130 0A20     		movs	r0, #10
 280 0132 FFF7FEFF 		bl	CyDelay
 281              	.LVL65:
 123:main.c        ****             UART_1_PutChar(val2);
 282              		.loc 1 123 0
 283 0136 2046     		mov	r0, r4
 284 0138 FFF7FEFF 		bl	UART_1_PutChar
 285              	.LVL66:
 124:main.c        ****             time=time+10;
 286              		.loc 1 124 0
 287 013c 0A35     		adds	r5, r5, #10
 288              	.LVL67:
 289              	.L11:
  91:main.c        ****         {
 290              		.loc 1 91 0
 291 013e B5F5FA6F 		cmp	r5, #2000
 292 0142 B8DB     		blt	.L17
 293 0144 65E7     		b	.L18
 294              	.L25:
 295 0146 00BF     		.align	2
 296              	.L24:
 297 0148 D7A3F03E 		.word	1055957975
 298 014c D7A3F0BE 		.word	-1091525673
 299              		.cfi_endproc
 300              	.LFE63:
 301              		.size	main, .-main
 302              		.text
 303              	.Letext0:
 304              		.file 2 "c:\\program files (x86)\\cypress\\psoc creator\\4.3\\psoc creator\\import\\gnu\\arm\\5.4.
 305              		.file 3 "c:\\program files (x86)\\cypress\\psoc creator\\4.3\\psoc creator\\import\\gnu\\arm\\5.4.
 306              		.file 4 "Generated_Source\\PSoC5/cytypes.h"
 307              		.file 5 "Generated_Source\\PSoC5/QuadDec_1.h"
 308              		.file 6 "Generated_Source\\PSoC5/LCD_Char_1.h"
 309              		.file 7 "Generated_Source\\PSoC5/PWM_1.h"
 310              		.file 8 "Generated_Source\\PSoC5/UART_1.h"
 311              		.file 9 "Generated_Source\\PSoC5/CyLib.h"
 312              		.file 10 "Generated_Source\\PSoC5/core_cm3.h"